; Function Attrs: mustprogress uwtable
define internal void @_ZNK5arrow7compute8internal12_GLOBAL__N_120DictionaryHashKernel10value_typeEv(ptr dead_on_unwind noalias writable sret(%"class.std::shared_ptr.19") align 8 %0, ptr noundef nonnull readonly align 8 captures(none) dereferenceable(104) %1) unnamed_addr #2 align 2 {
  %3 = getelementptr inbounds nuw i8, ptr %1, i64 56
  %.val = load ptr, ptr %3, align 8, !tbaa !245
  %4 = load ptr, ptr %.val, align 8, !tbaa !79
  %5 = getelementptr inbounds nuw i8, ptr %4, i64 48
  %6 = load ptr, ptr %5, align 8
  tail call void %6(ptr dead_on_unwind writable sret(%"class.std::shared_ptr.19") align 8 %0, ptr noundef nonnull align 8 dereferenceable(56) %.val)
  ret void
}